001001ADMISSAO POR CONCURSO PUBLICO                     
101002TRANSFERENCIA A PEDIDO                            
001003ADMISSAO SEM CONCURSO PUBLICO                     
001004NOMEACAO PARA CARGO                               
001005REDISTRIBUICAO                                    
001006REINTEGRACAO                                      
101007REVERSAO                                          
101008REQUISICAO COM OPCAO                              
101009REQUISICAO COM ONUS PARCIAL                       
101010REQUISICAO SEM 0PCAO                              
101011DECISAO JUDICIAL                                  
102001TRANSFERENCIA "EX-OFFICIO"                        
102002TRANSFERENCIA A PEDIDO                            
102003MOVIMENTACAO "EX-OFFICIO"                         
102004MOVIMENTACAO A PEDIDO                             
102006REQUISICAO                                        
102007FALECIMENTO                                       
102008DECISÃO ADMINISTRATIVA ÓRGÃO                      
102009DISPENSA DE EMPREGO SEM JUSTA CAUSA               
002010DISPENSA DE EMPREGO POR JUSTA CAUSA               
002011DEMISSAO                                          
002012EXONERACAO DECISAO TCU NO 234/93                  
003001EXERCICIO DE MANDATO ELETIVO                      
003002ABANDONO DE CARGO OU EMPREGO                      
003003PRISAO                                            
003004MISSAO OFICIAL NO EXTERIOR                        
003005COMPETICAO ESPORTIVA                              
003006TREINAMENTO/CURSO                                 
003007SERVIR A JUSTICA                                  
003009AGUARDANDO A EXONERACAO                           
003010LICENCA P/TRATO DE INTERESSE PARTICULAR           
003011LICENCA PARA SERVICO MILITAR                      
003012LICENCA PARA ACOMPANHAR CONJUGE                   
103013DOENCA ESPECIFICADA EM LEI (ART.104)              
003014LICENCA MATERNIDADE                               
103015LICENCA GESTANTE (ESTATUTARIO)                    
103016LICENCA P/TRATAMENTO PESSOA DA FAMILIA (ART.106)  
103017LICENCA ESPECIAL                                  
003018LICENCA PARA TRATAMENTO SAUDE ATE 15 DIAS(CLT)    
103019LICENCA PARA TRATAMENTO DE SAUDE (ART.92/97/98)   
003020LICENCA PATERNIDADE                               
003021SUSPENSAO PREVENTIVA                              
003022SUSPENSAO DISCIPLINAR                             
003023REQUISICAO                                        
003024DECISAO JUDICIAL                                  
003026CANDIDATURA POLITICA                              
103025ACIDENTE DE TRABALHO ESTATUTARIO                  
003027INQUERITO ADMINISTRATIVO                          
003028AFASTAMENTO P/ENTIDADE DE CLASSE                  
104001EXERCICIO DE MANDATO ELETIVO                      
104002ABANDONO DE CARGO / EMPREGO                       
104003PRISAO                                            
104004MISSAO OFICIAL NO EXTERIOR                        
104005COMPETICAO ESPORTIVA                              
104006TREINAMENTO/CURSO                                 
104007SERVIR A JUSTICA                                  
104008INQUERITO POLICIAL                                
104009AGUARDANDO EXONERACAO                             
104010LICENCA PARA TRATO DE INTERESSE PARTICULAR        
104011LICENCA PARA SERVICO MILITAR                      
104012LICENCA PARA ACOMPANHAR CONJUGE                   
104014LICENCA GESTANTE (CLT)                            
104015LICENCA GESTANTE (ESTATUTARIA)                    
104016LIC.P/TRATAMENTO DE SAUDE PESSOA DA FAM.ART.106   
104017LICENCA ESPECIAL                                  
104018LICENCA PARA TRATAMENTO DE SAUDE APOS 15 DIAS     
104019LICENCA P/TRATAMENTO DE SAUDE ART.92/97/98        
104020LICENCA PATERNIDADE                               
104021SUSPENSAO PREVENTIVA                              
104022SUSPENSAO DISCIPLINAR                             
104023DEVOLUCAO DE REQUISICAO                           
104024DECISAO JUDICIAL                                  
101012TRANSFERENCIA EX-OFFICIO                          
001013MEMBRO DE ORGAO DE DELIBERACAO COLETIVA           
104025ACIDENTE DE TRABALHO                              
104026CANDIDATURA POLITICA                              
104027INQUERITO ADMINISTRATIVO                          
104028RETORNO DE AFASTAMENTO PARA ENTIDADE DE CLASSE    
005001INVALIDEZ COM PROVENTOS INTEGRAIS                 
005002INVALIDEZ COM PROVENTOS PROPORCIONAIS             
005003COMPULSORIA COM PROVENTOS INTEGRAIS               
005004COMPULSORIA COM PROVENTOS PROPORCIONAIS           
005005VOLUNTARIA COM PROVENTOS INTEGRAIS                
005006VOLUNTARIA COM PROVENTOS PROPORCIONAIS            
005007VOLUNTARIA COM PROVENTOS INT. E VANT.LEI 6732/79  
005008VOL.C/PROV.INT.VANT.ART 180,ITEM I LEI 1711/52    
005009VOL.C/PROV.INT.VANT.ART.180 ITEM II LEI 1711/52   
005010VOL.C/PROV.INT.VANT.ART.184 ITEM I LEI 1711/52    
005011VOL.C/PROV.INTEG.E VANT.ART.184 ITEM II L.1711    
005012VOL.C/PROV.INT.VANT.ART.184 ITEM III LEI 1711/52  
106001PROGRESSAO FUNCIONAL                              
106002ALTERACAO DE CARGO                                
106003ALTERACAO DE FUNCAO                               
106004RETIFICACAO DE ENQUADRAMENTO                      
106005NOMEACAO P/ FUNCAO                                
106006DESIGNACAO P/ FUNCAO                              
106007RECLASSIFICACAO                                   
106009SUBSTITUICAO DE FUNCAO                            
106010INCLUSAO NA TABELA PERMANENTE                     
106011DESIGNACAO PARA O GRUPO SI                        
106012DECISAO JUDICIAL                                  
106013DESIGNACAO PARA RESPONDER PELO EXPEDIENTE         
106014DISPENSA DA FUNCAO                                
106015DIPENSA DO GRUPO SI                               
106016DISPENSA DE RESPONSAVEL PELO EXPEDIENTE           
106017DESTITUICAO DE FUNCAO                             
106018REMOCAO INTERNA                                   
106019MOVIMENTACAO INTERNA                              
106020LOCALIZACAO                                       
006021ALTERACAO DE REGIME JURIDICO                      
106022ACAO DISCIPLINAR (MULTA E SUSPENSAO)              
101014CESSAO                                            
001015DESIGNACAO PARA FUNCAO                            
001016NOMEACAO PARA CARGO EM COMISSAO                   
001017CONTRATO DE TRABALHO                              
001018READMISSAO                                        
101019MOVIMENTACAO EXTERNA                              
101020MOVIMENTACAO A PEDIDO                             
101021AUXILIO DOENCA                                    
101022AUXILIO FUNERAL                                   
101023MOVIMENTACAO EX-OFFICIO                           
002014RESCISAO DE CONTRATO                              
102015SUSPENSAO CONTRATUAL                              
102016MOVIMENTACAO EX-OFICIO                            
002017DISPENSA DE EMPREGO A PEDIDO                      
102018DISPENSA DE FUNCAO                                
102019DISPENSA DE FUNCAO A PEDIDO                       
102020APRESENTACAO AO NOVO ORGAO                        
102021EXONERACAO DA FUNCAO                              
003029AUXILIO DOENCA(CLT)                               
101024REMOCAO                                           
102022REMOCAO                                           
001025LOCALIZACAO                                       
102023REMOCAO                                           
106024ASCENSAO FUNCIONAL                                
101026MOVIMENTACAO POR PERMUTA                          
001027TRANSFERENCIA POR PERMUTA                         
001028POSSE MANDATO ELETIVO                             
002024TERMINO MANDATO ELETIVO                           
003030ACIDENTE DE TRABALHO CLT                          
102025TRANSFERENCIA P/PERMUTA                           
102026MOVIMENTACAO POR PERMUTA                          
103031LICENCA ARTIGO 123(ESTATUTARIO)                   
003032ALISTAMENTO ELEITORAL                             
003033FALTAS NAO JUSTIFICADAS                           
003035DISPONIBILIDADE                                   
003036DOACAO VOLUNTARIA DE SANGUE                       
003037CASAMENTO                                         
103038GALA                                              
103039NOJO                                              
104040SERVIR A JUSTICA                                  
003041SUSPENSAO CONTRATO DE TRABALHO                    
001029TRANSPOSICAO/TRANSFORMACAO                        
001030EX-PRESIDENTE DA REPUBLICA                        
102005REDISTRIBUICAO                                    
003008INQUERITO POLICIAL                                
104013DOENCA ESPECIFICADA EM LEI (ART.104)              
106008INCORPORACAO DE FUNCAO                            
006023ALTERACAO DE SITUACAO DO SERVIDOR                 
003034DOENCA CONTAGIOSA                                 
005013DECISAO JUDICIAL                                  
005014DOENCA ESPEC.EM LEI(ART.104 LEI-1711/52 E 1050/50)
002027ERRO DE CADASTRAMENTO OU DUPLICIDADE              
002013DECISAO JUDICIAL                                  
003040FALECIMENTO PESSOA DA FAMILIA                     
003100LICENCA MOTIVO DE DOENCA PESSOA FAMILIA (60 DIAS) 
103101LIC. AFST.CONJ./COMP. ART.84 PARAG.II LEI 8112/90 
003102LICENCA PARA SERVICO MILITAR                      
003103LICENCA PREMIO POR ASSIDUIDADE                    
003104LICENCA TRATAR INT.PARTIC. ART.91 LEI 8.112/90    
003105LICENCA DESEMPENHO DE MANDATO CLASSISTA           
003106AFASTAMENTO MANDATO FEDERAL,EST.OU DISTRITAL      
003107AFAST. EXERC. MANDATO ELETIVO P/PREFEITO          
003108AFAST. EXERCICIO MANDATO ELETIVO PREFEITO         
003109AFASTAMENTO EXERC. MANDATO ELETIVO VEREADOR       
003110AFASTAMENTO EXERC. MANDATO ELETIVO VEREADOR       
003111AFAST. ESTUDO/MISSAO EXTERIOR-ART 95,8112/90      
003112AFAST.P/SERVIR EM ORG.INTERNACIONAL,ART96,8112/90 
003113LICENCA TRAT DE SAUDE, ART 202,LEI 8112/90        
003114LICENCA GEST (120 DIAS)ART. 207 LEI 8112/90       
003115ADOCAO OU GUARDA JUDICIAL, ART.210, LEI 8112/90   
003116LICENCA POR ACIDENTE EM SERV.ART.211,LEI 8.112/90 
003117LIC.ESPECIF. EM LEI, ART.204 CC ART 186,L 8112/90 
003118PENALIDADE DISCIP.(SUSPENSAO)ART 130,L.8112/90    
003119PENALIDADE DISCIP.(MULTA),ART.130,L.8112/90       
003120AFAST.INQUERITO ADMINISTRATIVO,L.8112/90          
003121AFASTAMENTO SINDICANCIA (SUSPENSAO),LEI 8112/90   
003122AFASTAMENTO PREVENTIVO, ART.147, LEI 8112/90      
003123LICENCA PATERNIDADE, ART. 208, LEI 8112/90        
003124DOACAO VOLUNT.DE SANGUE,ART 97,INC.I,8112/90      
101112REMOCAO DE OFICIO, ART.36, LEI 8112/90            
003125ALISTAMENTO ELEIT, ART.97,INC.II, LEI 8112/90     
003126CASAMENTO, ART.97,INC. III, ALINEA A,LEI 8112/90  
002028OPCAO POR OUTRA FONTE AMPARADA EM LEI (INATIVO)   
005100INVALIDEZ COM PROVENTOS INTEGRAIS (ART.186.I)     
005101INVALIDEZ COM PROVENTOS PROPORC.(ART.186.I)       
005102COMPULSORIA COM PROVENTOS PROPORC.(ART.186.II)    
005103VOLUNTARIA COM PROV.INTEG.(ITEM A,INC.III,ART.186)
005104VOLUNTARIA COM PROV.INT.(ITEM B,INC.III, ART.186) 
005105VOLUNTARIA C/ PROV.PROP.(ITEM C,INC.III ART.186)  
005106VOLUNT.C/PROV.PROPOR.(ITEM D, INC.III, ART.186)   
003127LICENCA MOT.FALECIMENTO PES. DA FAMILIA,L.8112/90 
005107VOLUNTARIA C/VANT.ART.192, INC.I, LEI 8112/90     
005108VOLUNTARIA C/VANT. ART.192, INC. II, LEI 8112/90  
005109VANTAGENS ART. 193 LEI 8112/90                    
002029EXCL. DECORRENTE APLICACAO ART 217,II,LEI 8112/90 
003133DOENCA PESSOA FAM/ART.83,2,LEI8112/90(+DE 60DIAS) 
002100REDISTRIBUICAO / ART. 37, LEI 8.112/90            
102104REMOCAO DE OFICIO / ART.36, LEI 8112/90           
002105EXON.CARGO EFET. PEDIDO/ART.34,LEI 8112/90        
002106EXON.CARGO EFET.ART.34,PAR.UNICO,INC.I,L.8112/90  
002107EXON.CARG.EFET.ART.34,PAR.UNICO,INC.II,L.8112/90  
002108EXON.CARG.COMIS.ART.35,INC I, LEI 8112/90         
002109EXON.CARG COMIS/FUNC.CONF.ART.35,II, LEI 8112/90  
102111TRANSFERENCIA A PEDIDO/ART.23,PAR.1, LEI 8.112/90 
102112TRANSFERENCIA DE OFICIO,ART.23,PAR.1, LEI 8.112/90
002113EXCLUSAO DECORRENTE APLIC.ART.217, INC.II,LEI 8112
002114DEMISSAO - ART. 132, LEI 8112/90                  
003128CONDENACAO A PENA PRIVATIVA DE LIBERDADE,L.8112/90
003129PARTICIPACAO EM COMP.DESPORTIVA,ART.102,L.8112/90 
003130PART. PROG.TREINAMENTO,ART 102,INC.IV,LEI 8112/90 
003131ABANDONO DE CARGO OU EMPREGO, ART.138, LEI 8112/90
003132OPCAO POR OUTRO CARGO - ACUMULACAO LICITA         
003134AFAST.ESTUDO OU MISSAO EXTERIOR,ART.95,LEI 8112/90
001100NOMEACAO CARATER EFETIVO,ART.9,ITEM I ,LEI 8112/90
001101NOMEACAO COMIS. CARG.CONF.ART.9,ITEM II,LEI8112/90
101102TRANSFERENCIA A PEDIDO, ART.23, & 1, LEI 8112/90  
001103TRANSFERENCIA DE OFICIO,ART.23,& 1, LEI 8112/90   
001104REDISTRIBUICAO, ART. 37, LEI 8112/90              
001105REINTEGRACAO, ART.28, LEI 8112/90                 
101107REQUISICAO COM ONUS PARCIAL, LEI 8112/90          
001108REQUISICAO SEM ONUS, LEI 8112/90                  
101110ATIVO TRANSITORIO, LEI 8112/90                    
001111REMOCAO A PEDIDO, ART.36, LEI 8112/90             
001113NOMEACAO CARGO DE NATUREZA ESPECIAL, LEI 8112/90  
101114ALOCACAO DE SERVICOS, ART 232, LEI 8112/90        
001109REQUISICAO COM ONUS, LEI 8112/90                  
002102RETORNO A ORIGEM                                  
102103REMOCAO A PEDIDO, ART. 36, LEI 8112/90            
101115REQUISICAO SEM OPCAO, LEI 8.112/90                
002110DECISAO JUDICIAL                                  
003135LIC.AFAST.CONJ/COMP.ART.84 PARAG.1.LEI 8112/90    
003136LICENCA P/ ATIV.POLITICA, ART.86, LEI 8112/90     
003137LICENCA P/ ATIV.POLITICA,ART.86, LEI 8112/90      
002030TERMINO DE CONTRATO                               
002115EXONERACAO DE CARGO NATUREZA ESPECIAL             
002031APOSENTADORIA PELO INSS                           
102116MAIORIDADE DO BENEFICIARIO DE PENSAO              
102117CASAMENTO DE FILHA MAIOR, BENEFICIARIA DE PENSAO  
102118FALECIMENTO DE BENEFICIARIO DE PENSAO             
102119CESSACAO DA INVALIDEZ DO BENEFICIARIO DE PENSAO   
102120RENUNCIA EXPRESSA DO BENEFICIARIO DE PENSAO       
006025ENQUADRAMENTO SALARIAL - LEI 8460/92              
007001MAIORIDADE DO BENEFICIARIO DE PENSAO              
007002CASAMENTO DE FILHA MAIOR, BENEFICIARIA DE PENSAO  
007003FALECIMENTO DE BENEFICIARIO DE PENSAO             
007004CESSACAO DA INVALIDEZ DO BENEFICIARIO DE PENSAO   
007005RENUNCIA EXPRESSA DO BENEFICIARIO DE PENSAO       
001050REFORMA ADMINISTRATIVA                            
001116REVERSAO, ART.25 DA LEI 8.112/90                  
002050REFORMA ADMINISTRATIVA                            
002121ARTIGO 134 - LEI 8.112/90                         
101117POSSE OUTRO CARGO INACUMULAVEL-ART33-INC.VIII-8112
002122POSSE OUTRO CARGO INACUMULAVEL-ART33-INC.VIII-8112
102127TRANSFERENCIA PARA O NOVO MODULO PENSAO           
002184EXCLUSAO POR IMPLANTACAO NOVO MODULO DE PENSAO    
101106REQUISICAO COM OPCAO, LEI 8112/90                 
002101FALECIMENTO, ART. 33, LEI 8112/90                 
007027ERRO DE CADASTRAMENTO OU DUPLICIDADE              
007006EXCLUSAO P/ BENEFIC.DE PENSAO ESPECIAL-DEC. JUDIC.
008001ISENCAO DE IR DOENCA ESPECIFICADA EM LEI/INVALIDEZ
003138PARTICIPACAO EM PROC. DE LIQUIDACAO DE OUTRO ORGAO
001118AUXILIO RECLUSAO                                  
002123BENEF.AUXILIO RECLUSAO                            
002185MORTE PRESUMIDA ART.221 DA LEI 8.112/90           
001119ANISTIA - LEI 8878/94, DE 11.05.94 - DOU 12.05.94 
001120INSTITUIDOR DE PENSAO                             
001121INSTITUIDOR DE PENSAO GRACIOSA                    
002124TRANSFERENCIA INSTIT/BENEFICIARIO P/ OUTRO ORGAO  
002125TRANSFERENC. BENEFICIARIO/CONVERSAO P/ OUTRO ORGAO
009001FALECIMENTO DO DEPENDENTE                         
009007MAIORIDADE DO DEPENDENTE                          
009027ERRO DE CADASTRAMENTO                             
009028CANCELAMENTO DA DEPENDENCIA                       
003139CURSO-ESG                                         
102186EXCLUSAO POR OPCAO ART. 225, LEI 8.112/90 - PENSAO
002187FALTA DE RECADASTRAMENTO                          
001122MEDICO RESIDENTE                                  
001123CONTRATADO TEMPORARIO - LEI 8745/93               
003140AFASTAMENTO NO PAIS C/ ONUS/EST/DOUTORADO/MESTRADO
002188DECISAO ADMINISTRATIVA - MARE                     
001124APOSENTADO - PROCESSO TCU 733/94                  
002189DEMISSAO (ART.132-LEI 8112/90 INC. XII)           
003042ATRASO OU SAIDA ANTECIPADA                        
003043FALTA NAO JUSTIFICADA CLT                         
003044FALTA JUSTIFICADA CLT                             
003045FERIAS CLT                                        
003046COMPARECIMENTO A CONGRESSO, CONFERENCIA OU SIMILAR
003047FALTA POR GREVE                                   
003048JURI                                              
003049DISPOSICAO DA JUSTICA ELEITORAL                   
003050AUSENCIA PREVISTA ART, 15, LEI 8868/94            
003051SUSPENSAO DISCIPLINAR                             
003052VIAGEM A SERVICO                                  
003141ATRASO OU SAIDA ANTECIPADA                        
003142FALTA NAO JUSTIFICADA                             
003143FALTA JUSTIFICADA FINS DISCIPLINARES              
003144FERIAS                                            
003145COMPARECIMENTO A CONGRESSO,CONFERENCIA OU SIMILAR 
003146FALTA POR GREVE                                   
003147JURI                                              
003148DISPOSICAO DA JUSTICA ELEITORAL                   
003149LICENCA ADOCAO OU GUARDA JUDICIAL, ART 210,& UNICO
003150VIAGEM A SERVICO                                  
003151DESLOCAMENTO P/ NOVA SEDE, ART 18, LEI 8112/90    
003152AFASTAMENTO P/ SERVIR OUTRO ORGAO/ENTIDADE        
002190READAPTACAO ART.33, INCISO VI, LEI 8112/90        
003153ESTUDO MISSAO EXTERIOR, ART.95,LEI 8112/90        
003154PARTIC.COMIS DE INQUERITO,&1,ART 152,LEI 8112/90  
007028DECISAO ADMINISTRATIVA-MARE                       
001125RECONDUCAO, ART 29 INCISO I DA LEI 8.112/90       
001126RECONDUCAO, ART.29, INCISO II DA LEI 8.112/90     
001127APROVEITAMENTO, ART.30 DA LEI 8.112/90            
001128READAPTACAO, ART.24 DA LEI 8.112/90               
007007EXCLUSAO POR OPCAO ART. 225 LEI 8.112/90 PENSAO   
003155LICENCA EXTRAORDINARIA ART.23, LEI 7501/86        
003156AFAST.TRI/QUADRIMESTRAL ART 32 INC.I DEC.93325/86 
003157VINDA PERIODICA,ART.32 INC.II DEC.93325/86        
003158TRANSITO, ART.22 DEC. 93325/86                    
001129EXERCICIO DESCENTRALIZADO - CARREIRAS             
001130LOTACAO PROVISORIA                                
003159EXERCICIO DESCENTRALIZADO - CARREIRAS             
003160EXERCICIO PROVISORIO-ART. 84 P. 2.L.8112/90       
003161DESCANSO AMAMENTACAO ART.209 LEI 8112/90          
001161ANISTIADO - ADCT - CONSTITUICAO FEDERAL           
001131PROMOCAO-CARREIRA DE PROCURADOR FAZENDA NACIONAL  
002191PROMOCAO-CARREIRA DE PROCURADOR FAZENDA NACIONAL  
002192ACUMULACAO ILICITA (CF ART 37 INC XVI)            
102193FALECIMENTO ANISTIADO L.8878/94                   
002194EXONERAÇAO ANISTIADO (LEI 8878/94)                
001162PROMOCAO CARREIRA DIPLOMATA MRE                   
002195PROMOCAO CARREIRA DIPLOMATA MRE                   
003162AFASTAMENTO PARA CURSO DE FORMACAO COM OPCAO      
003163AFASTAMENTO PARA CURSO DE FORMACAO SEM OPCAO      
003164AFASTAMENTO ART. 120 DA LEI 8112/90               
002196ACAO CIVIL PUBLICA 960001155-9 DE 07OUT1996       
007128ACAO CIVIL PUBLICA 960001155-9 DE 07OUT1996       
002197ANULACAO DO ATO DE NOMEACAO (ART 3, DEC. 2027/96) 
002198EXONERACAO CARGO EFETIVO (ART 1, DEC. 2027/96)    
002199SUSPENSAO DA APOSENTADORIA (ART 1, DEC. 2027/96)  
002200PROGRAMA DE DESLIGAMENTO VOLUNTARIO - PDV         
007029OCUPANTE CARGO PUB. PERMANENTE ART. 5 LEI 3373/58 
002201EXCLUSAO TERMINO DE LOTACAO PROVISORIA            
002202PORTARIA NR. 3517 DE 05DEZ1996                    
002203PORTARIA NR 3532 DE 09DEZ1996                     
002204DEMISSAO ART 137,CAPUT LEI 8112/90                
002205DEMISSAO ART 137 PARAGRAFO UNICO, LEI 8112/90     
001132TRANSP. DEC. JUDICIAL RT 08.1.515/89 E 1.615/89   
002126TRANSP.DEC. JUDICIAL RT 08.1515/89 E 1.615/89     
001163INCONSTITUCIONALIDADE DE ASCENCAO FUNCIONAL CF/88 
002206INCONSTITUCIONALIDADE DE ASCENCAO FUNCIONAL CF/88 
002207FALECIMENTO (DOENCA ESPECIFICADA EM LEI)          
002208DECISAO ADM MARE (APOSENTADO/INSTITUIDOR)         
007030DECISAO ADM MARE (APOSENTADO/INSTITUIDOR)         
001070ADMISSAO POR CONCURSO/EMPRESA                     
001071ADMISSAO SEM CONCURSO/EMPRESA                     
001072NOMEADO PARA CARGO/EMPRESA                        
001073REINTEGRADO/EMPRESA                               
001074ANISTIADO LEI 8878/94                             
001075DECISAO JUDICIAL/EMPRESA                          
001076REQUISITADO COM ONUS/EMPRESA                      
001077REQUISITADO SEM ONUS/EMPRESA                      
001078ESTAGIO LEI 6494/77 / EMPRESA                     
001079APRENDIZ / EMPRESA                                
001080CONTRATO DETERMINADO                              
001081TRANSFERENCIA/EMPRESA                             
002070DEMISSAO SEM JUSTA CAUSA/EMPRESA                  
002071DISPENSADO POR SOLICITACAO/EMPRESA                
002072EXTINCAO DE CONTRATO                              
002073FALECIMENTO                                       
002074APOSENTADORIA                                     
002075TERMINO DE MANDATO                                
002076TERMINO DE REQUISICAO                             
002077EXONERACAO A PEDIDO/EMPRESA                       
002078DEMISSAO POR JUSTA CAUSA/EMPRESA                  
002079DEMISSAO PDV                                      
002080APOSENTADORIA POR INVALIDEZ TEMPORARIA            
002081TERMINO DO ESTAGIO/EMPRESA                        
002082TERMINO CESSAO/EMPRESA                            
002083CEDIDO COM ONUS / EMPRESA                         
003070LICENCA ACIDENTE DE TRABALHO/EMPRES(CONVENIO INSS)
003071LICENCA TRATAMENTO DE SAUDE C/EXC.PGTO. (+ DE 15D)
003072LICENCA TRATAM.DE SAUDE SEM COMPLENTACAO CONV INSS
003073LICENCA TRATAMENTO SAUDE CID ESPECIAL(CONV.INSS)  
003074LICENCA TRATAM. DE SAUDE CID REINCID.(CONV.INSS)  
003075AFASTAMENTO COM REMUNERACAO TREINAMENTO/EMPRESA   
003076AFASTAMENTO SERVICO MILITAR OBRIGATORIO/EMPRESA   
003077AFASTAMENTO POR PRISAO RECLUSAO                   
003078EXERCICIO MANDATO ELETIVO SEM REMUNERAÇAO/EMPRESA 
003079AFASTAMENTO S REMUNERACAO DIRIGENTE SINDICAL/EMP  
003080AFASTAMENTO SEM REMUNERACAO                       
003081LICENCA MATERNIDADE COM EXCLUSAO DE PAGAMENTO     
003082LICENCA MATERNIDADE ABORTO/EMPRESA                
003083DISPUTA MANDATO ELETIVO                           
003084EXERCICIO MANDATO ELETIVO COM REMUNERACAO/EMPRESA 
003085AFASTAMENTO PARA MANDATO SINDICAL                 
003086LICENCA ADOCAO 120 DIAS CLT                       
003087SUSPENSAO                                         
003088PROVAS ESCOLARES                                  
003089LICENCA GALA                                      
003090LICENCA NOJO                                      
003091LICENCA PATERNIDADE                               
003092DOACAO DE SANGUE                                  
002093CONVOCACAO TRE                                    
003094LICENCA GESTANTE                                  
003095OBRIGACOES MILITARES/EMPRESA                      
003096VIAGEM A SERVICO                                  
003097EXAME MEDICO PERIODICO                            
003098ACOMPANHAMENTO DEPENDENTE                         
003099SERVIÇO EXTERNO                                   
003069COMPARECIMENTO A JUSTICA                          
001082FUNCAO COMISSIONADA/CONTRATO ESPECIAL             
001083REQUISITADO PARA CARGO-EMPRESA                    
001084PARTICIPACAO EM CONSELHO DE ADM.E FISCAL          
003068OF.CRH SAG MAARA NR 1203 DE 04OUT1994             
001133INCLUSAO MANDATO DE SEGURANCA - FAS               
007031EXCLUSAO DECISAO JUDICIAL                         
002094DEMISSAO A PEDIDO                                 
007129DECISAO ADMINISTRATIVA (ORGAO)                    
003165AFAST ART 93 PARAG 1º INC.I LEI 8112/90           
003166LIC.DESEMP.MANDATO CLASSISTA/DECISAO JUDICIAL     
001164APOSENTADORIA INTEGRAL PARECER AGU/GQ-131/97      
001165DECISAO JUDICIAL                                  
001166DECISAO JUDICIAL - ESTABILIDADE DECLARADA         
001085MEDICO RESIDENTE                                  
101167ASCENSAO FUNCIONAL- ATUALIZ. CADASTRAL NAO ESTAVEL
002209FALECIMENTO - ANISTIADO - LEI 8878/94             
002210TRANSPOSICAO P/CARREIRA AGU LC. 73/93             
001168TRANSFORMACAO/TRANSPOSICAO                        
003167LIC.P/DESEMP.MAND.CLASSISTA ART.92 LEI 8112/90    
002211APOSENTADORIA POR INVALIDEZ                       
006026TRANSPOSICAO PARA A CARREIRA DA AGU LEI 9028/95   
003093LICENCA ESPECIAL                                  
002095DEMISSAO POR DECISAO JUDICIAL                     
002096EXONERACAO DO CARGO EM COMISSAO/EMPRESA           
002097DEMISSAO SEM JUSTA CAUSA PELO EMPREGADO           
005200INVAL.ART.186 I,PROV.PROP.COMB.ART.193 L.8112/90  
005201INVOLUNT.ART.186 I PROV.INT.COMB.ART.193 8112/90  
005202INV.COM PROV INT.186 I CC ART 192 I L.8112/90     
005203INV.ART 186 I PROV INT COMB ART.192 II L.8112/90  
005204INVALIDEZ PERM.PROV.INT.COMB.A.193 L.8112/90      
005205COMPULSORIA II PROV.INTEG. L.8112/90              
005206COMP.ART.186 II CC ART. 250 L.8112/90             
105207AP COM PROV PROP ART 186 II LEI 8112/90           
005208VOL.PROV.PROP.ART.186 III C CC ART.193 L.8112/90  
005209VOL.PROV.PROP.ART.186 III D CC ART.193 L.8112/90  
005210COMPULS.ART.186 II CC 192 I L.8112/90             
005211COMPULS.186 II CC 192 II L.8112/90                
005212PROV.INTEGRAIS 186 II CC 193 L.8112/90            
105213APOS COMP 186 II CC 250 LEI 8112/90               
005214COMP.COM PROV.PROPORC.ART.186 II L.8112/90        
003067LIC. MATERNID.SEM EXCLUSAO DE PAGAM.CONV. INSS    
003066LICENCA TRATAMENTO DE SAUDE/CLT (CONVENIO INSS)   
006027PROGRESSAO FUNCIONAL                              
006028TRANSFORMACAO                                     
006029PROMOCAO                                          
003168CESSAO P/MPAS/CRPS P.2.ART.14 DEC.2.135/95        
001169REQUISITADO DO INSS P.7.ART.114 DEC.2.135/95      
002212TERMINO DE REQUISICAO P.7 ART.114 DEC 2.135/95    
006030DECISAO JUDICIAL - ANISTIADO                      
005215(INV.PROP)ART.186,INC.IC/ART.2L.8911/94 L.8112/90 
005216L.8112,ART186,INC.I C/C ART 2E3 L8911/94(INV.PROP)
005217L.8112,ART.186,INC.I C/C ART.3,L8911/94(INV.PROP) 
005218L.8112,ART186,INC.I C/CART.8,L8911/94(INV.PROP)   
005219L.8112,ART.186,INC.I÷1ºC/CART.2,L.8911(INV.INTEG) 
005220L.8112,ART186,INC.I ÷1ºC/C,ART.2E3,L8911(INV.INTEG
005221L.8112,,ART.186,INC.I÷1º,C/C,ART3,L8911(INV.INTEG)
005222L.8112,ART186,INC.I÷1ºC/C,ART.8º,L8911(INV.INTEGR)
005223L.8112,ART.186,INC.IIC/C,ART.2º,L8911(COMPUL.PROP)
005224L.81112,ART.186,INC.IIC/C ART.2E3,L8911(COMP.PROP)
005225L.8112,ART.186,INC.IIC/C,ART3º,L8911(COMPUL.PROP) 
005226L.8112,ART.186,INC.IIC/C,ART.8º,L.8911(COMP.PROP) 
005227L.8112,ART186,INCIII,ALI"A"C/CAR2ºL8911,PRO.INTEG 
005228L.8112,ART186,INCIII,ALI"A"C/CART.2E3L8911,PRO.INT
005229L.8112,ART186,INC.III,ALI"A"C/CART3,L8911(PRO.INTE
005230L.8112,ART186INCIII,ALI"A"C/CART8,L8911(PRO.INTEG)
005231L.8112,ART186INCIIIALI"C"C/CART2L8911(PROV.PROP)  
005232L.8112ART186INCIIIALI"C"C/CART2E3L8911(PROV.PROP  
005233L.8112,ART186INC.IIIALI"C"C/CART3ºL8911(PROV.PROP)
005234L.8112,ART186INC.IIIALI"C"C/CART8ºL8911(PROV.PROP 
005235L.8112,ART186,INCIII.ALI"D"C/C2ºL8911(PROV.PROP)  
005236L8112,ART186INC.IIIALI"D"C/CART2E3L8911(PROV.PROP)
005237L8112ART186INC.IIIALI"D"C/CART3ºL8911(PROV.PROP)  
005238PROP.L.8112-ART.186,III,D C/ART.8 L.8.911         
005239EX-COMBATENTE,ART195,LEI8112,C/CO ART53ADCT/CF88  
008002CALCULO DE IR - EXTERIOR - 25%                    
003065INVALIDEZ PROVISORIA CLT                          
006031ENQUADRAMENTO CARREIRA DPF - LEI 9.688/98         
003169A DISPOSICAO SUS - ART. 20 LEI 8270/91            
003170A DISPOSICAO MUNICIPIO - ART. 20 LEI 8270/91      
002213DESTITUICAO CARGO COMISSAO-ART.127,V 135-L.8112/90
006032COMPLEMENTACAO APOSENTADORIA - CLT                
005240COMPLEMENTACAO DE APOSENTADORIA - INSS            
001170LOTACAO INCISO XVII ART 4 LEI COMPLEMENTAR 73/93  
002214LIBERACAO LOTACAO INC XVII ART 4 LEI COMP. 73/93  
003171LICENCA TRATAMENTO DE SAUDE EMPRESA               
002215FALECIMENTO COMPLEMENTO DE APOSENTADORIA/CLT29    
010001ISENCAO DE PSS/PREV.SOCIAL - ART.3 EC 20/98 NORMAL
010002ISENCAO DE PSS/PREV.SOCIAL-ART.3 EC 20/98 ESPECIAL
010003ISENCAO PSS/PREV.SOCIAL-ART. 8 EC 20/98 - NORMAL  
010004ISENCAO PSS/PREV.SOCIAL-ART. 8 EC/20/98 - ESPECIAL
002032APOSENTADORIA PELO TCU                            
001172REMANEJAMENTO APOSENTADO POR DECISAO JUDICIAL     
002033REMANEJAMENTO APOSENTADO POR DECISAO JUDICIAL     
010005ISENCAO PSS/PREV.SOCIAL-ART.3 EC 20/98 ESP/PRF    
002216OBITO DECRETO 2.729/98                            
003172EXERC.PROVISORIO POR REFORMA ADMINISTRATIVA       
001173INGRESSO POR EXERCICIO PROVISORIO-REF ADMINISTRAT 
001174VINCULAçãO DE AJUSTES DE PAGAMENTO 28.86% - DELIQ 
002217VINCULAÇAO DE AJUSTES DE PAGAMENTO 28.86% - DELIQ 
105241APOS P/ INVALIDEZ PERM C/ PROVENTOS INTEGRAIS     
105242APOS P/ INVALIDEZ PERM C/ PROVENTOS INTEGRAIS     
105243APOS COMP AOS 70 ID C/ PROV PROP TEMP CONTRIBUICAO
105244APOSENTADORIA VOLUNTARIA                          
105245APOS C/ PROVENTOS PROPORCIONAIS                   
105246APOS VOL C/ PROVENTOS INTEGRAIS                   
105247APOS VOLUNTARIA C/ PROVENTOS INTEGRAIS            
105248APOSENT VOL C/ PROVENTOS PROPORCIONAIS            
105249APOSENT VOLUNT C/ PROVENTOS INTEGRAIS             
011001APOS P/INV PERM C/PROV INT-EC/20/98, ART40,INC ÷1º
011002APOS P/INV PERM C/PROV PROP-EC/20/98 ART40 INC ÷1º
011003AP COMP 70A C/PROV PROP TEM CONT EC/20/98 A40 ÷ 1º
011004APOS VOLUNT. EC 20/98 ART 40 ÷ 1º INCISO III      
011005APOS C/PROV PROP. EC 20/98, ART40 ÷1º INC III AL B
011006APOS VOL C/PROV INT MAG EC 20/98 ART 40 ÷5º       
012001APOS VOL C/PROV INT EC 20/98 ART 8 COMB C/A40 ÷ 3º
012002APOS VOL PROV PROP EC20/98 A.8 COMB A.40, ÷3º     
012003APOS VOL C/PROV INT MAG EC 20/98 ART 8 ÷4º        
008003ISENCAO DE IR APOSENT.>65 ANOS-DECISAO JUDICIAL   
006033TRANSPOSICAO CARREIRA                             
001175INCLUSAO ATRAVES DE CONVENIO                      
001176INCLUSAO SERVIDOR APOS CLT POR DECISAO JUDICIAL   
002128FALECIMENTO DE APOSENTADO CLT POR DECISAO JUDICIAL
001177TRANSFERENCIA PAGAMENTO PROVENTOS                 
002218TRANSFERENCIA PAGAMENTO PROVENTOS                 
004100RETORNO                                           
005250ART.186,ITIII,LTB,LEI8112,VT ART62 COM AT2E3 L8911
007130OBITO DECRETO 2.729/98                            
003173LICENCA PARA CAPACITACAO LEI 9527/97              
003174REDUCAO DE JORNADA ART 5 DA MP 1917/99            
003175LIC. INCENTIVADA NAO REMUNERADA ART.8 MP1917/99   
002098DESISTENCIA DA VAGA CLT                           
013001APOS - OUTROS PODERES LEI 3752/60                 
002219ACERTO DE CADASTRO OUTROS PODERES                 
007032ACERTO DE CADASTRO OUTROS PODERES                 
006034ANULACAO TRANSPOSICAO CARREIRA                    
002220EXONERACAO EX-OFFICIO - PARECER AGU/GQ N. 211/99  
002221CANCELAMENTO ATO APOSENTADORIA-DC 0227-23/00-2-TCU
002222APOSENTADORIA ILEGAL-DECISAO 096/2000-TCU-2 CAMARA
003176LIC. DESEMP.MANDATO CLASSISTA COM RESSARCIMENTO   
002223ANULACAO DO ATO DE ANISTIA - LEI 8878/94          
002224FALECIMENTO "OUTROS PODERES" M.FAZENDA            
002225FALEC.ANIST.LEI8878/94-INSTIT.PENSAO-DEC.JUDICIA  
006035DECISAO JUDICIAL - INSTITUIDOR DE PENSAO          
003999TRATAMENTO DOENCA ESPECIFICADA EM LEI             
002226FRAUDE                                            
007131FRAUDE                                            
003177AFASTAMENTO C/ REMUNERACAO COMPENSATORIA          
002227FALECIMENTO ( SIAPE X SCO )                       
007132FALECIMENTO (SIAPE X SCO)                         
105015RESERVA REMUNERADA INTEGRAL - CBM/PM              
105016RESERVA REMUNERADA PROPORCIONAL - CBM/PM          
005017REFORMA REMUNERADA INTEGRAL(DOENCA ESP.LEI)CBM/PM 
014001REFORMA REMUN.INTEG.-DOENCA ESP.LEI/MOLEST.SERVICO
015001RESERVA REMUNERADA INTEGRAL - CBM / PM            
015002RESERVA REMUNERADA PROPORCIONAL - CBM / PM        
002228ARTIGO 38 PARAGRAFO UNICO LEI 10486/02            
002229ANULACAO MOV,TRANSF,REDISTRIBUICAO, REFOR.ADM.    
001178ACEITE ANULACAO MOV. TRANSF., REDISTR., REFORM.ADM
003178SUSP.DE PAGAMENTO INCISO II ÷1º ART.7º LEI 4737/65
014002REFORMA REMUNERADA INTEGRAL                       
014003REFORMA REMUNERADA PROPORCIONAL                   
003179LICENCA EXTRAORDINARIA - GDF                      
003180LIC. P/TRATO DE INT. PART.LEIS 7289/84 E 7475/86  
003181DESERCAO - LEIS 7289/84, 7475/86 E 10486/02       
103182DEMISSAO A PEDIDO - LEIS 7289/84 E 7475/86        
002230DEMISSAO A PEDIDO - LEIS 7289/84 E 7475/86        
002231DEMISSAO EX-OFICIO - LEIS 7289/84 E 7475/86       
002232BEM DA DISC.-LEIS 7289/84 E 7475/86               
002233LICENCIAMENTO A PEDIDO - LEIS 7289/84 E 7475/86   
002234LICENCIAMENTO EX-OFICIO P/CONVENIENCIA DO SERVICO 
002235LICENCIAMENTO EX-OFICIO A BEM DA DISCIPLINA       
002236LICENC. EX-OFICIO P/CONCLUSAO DO TEMPO DE SERVICO 
002237FALECIMENTO - LEIS 7289/84 E 7475/86              
003183PARTICIPACAO SIST.NAC.NEGOCIACAO PERMANENTE       
116001ABONO DE PERMANENCIA EC 41/03_ART 40 ÷ 19         
116002ABONO DE PERMANENCIA EC 41/03 ART 2º ÷ 5º         
116003ABONO DE PERMANENCIA EC 41/03 ART 3º ÷ 1º         
002238REDISTR/REMOCAO/REMANEJ.APOS. ENTRE ORGãO DO GDF  
008004ISENCAO DE IR ANIST. POLIT.-÷ 1,ART.1º,DEC 4897   
005251INV.PERM.PROP.ART.40 ÷ 1 I EC 41/03               
005252INVALIDEZ PERMANENTE ART.40÷ 1 I EC 41/03         
005253COMP.C/PROV.PROP.ART.40 ÷ 1 II EC 41/03           
005254VOL.P/TEMPO CONTRIB.ART.40 ÷ 1 III A EC 41/03     
005255VOL.P/TEMPO CONTRIB.ART.40 ÷ 1 III B EC 41/03     
005256VOL.REGRA TRANS.ART.2 EC41/03 C/C ART.4 EC20/98   
005257MAGISTERIO/REGRA TRANSICAO ART.2 ÷ 4 EC 41/03     
005258VOLUNTARIA-DIREITO ADQUIRIDO ART.6 EC 41/03       
005259VOLUNTARIA - ART. 3 DA EC 41/2003                 
116004AB. DE PERM.÷1 ART 3 EC 41/03 C/C ART 3 EC 20/98  
007133DECISAO TCU                                       
002239CANCELAMENTO DE APOSENTADORIA                     
002240DESLIGAMENTO A PEDIDO - LEI 7475/86 - A103/104/I  
002241CASSACAO DE APOSENTADORIA-INC.IV, ART 127 LEI 8112
002242ANULACAO CONTRATO - LEI 8745/93                   
014004REFORMA REMUNERADA-DOENCA ESPEC. LEI - AUXíLIO    
001179ANISTIADO POLITICO-ADCT-LEI 10.559/02             
002129REVERSAO, ART.25 DA LEI 8.112/90                  
014005REFORMA REMUNERADA-DOENCA ESPEC. LEI - AUXíLIO    
005110INVALIDEZ PERMAN (ART 190 C/ 186 ÷1)              
008005ISENCAO DE IR/DOENCA ESPECIFICADA EM LEI/DEC.JUDIC
005260VOLUNTARIA PROVENTOS INTEGRAIS-ART. 3º EC 47      
011007APOSENTADORIA INV PERM PROV INTEG (ART 192 INC I) 
011008APOSENTADORIA INV PERM PROV INTEG (ART 192 INC II)
003184AFAST. TEMPORARIO ART 20 ÷ UNICO LEI 8429/92 - D.J
003185AFASTAMENTO PARA PRESTAR COLABORACAO              
001180COLABORADOR PCCTAE                                
001171ADMISSAO/CONTRATO ÷1º, ART. 15 DA MP 297/2006     
006036ENQUADRAMENTO                                     
017001LC 51 1º I                                        
017002LC 51 1º I L1711 184 I                            
017003LC 51 1º I L1711 184 II                           
017004LC 51 1º I L1711 180                              
017005LC 51 1º I L6732 2º                               
017006LC 51 1º I L8112 250                              
017007LC 51 1º I L8112 192 I                            
017008LC 51 1º I L8112 192 II                           
017009LC 51 1º I L8112 193                              
017010LC 51 1º I L8911 2º 3º                            
017011LC 51 1º II                                       
017012L8112 190 LC 51 1º II                             
017013LC 51 1º II L1711 184 I                           
017014LC 51 1º II L1711 184 II                          
017015LC 51 1º II L1711 180                             
017016L8112 190 LC 51 1º II L1711 180                   
017017LC 51 1º II L6732 2º                              
017018L8112 190 LC 51 1º II L6732 2º                    
017019LC 51 1º II L8112 250                             
017020LC 51 1º II L8112 192 I                           
017021LC 51 1º II  L8112 192 II                         
017022LC 51 1º II L8112 193                             
017023L8112 190 LC 51 1º II L8112 193                   
017024LC 51 1º II L8911 2º 3º                           
017025L8112 190 LC 51 1º II L8911 2º 3º                 
117026COMP.INT.ART.1INC.II LC51C/ART.193 L.8112/90      
117027COMP.INT.ART.1INC.II LC51 C/62-A E 250            
117028INT.ART.1 INC.II LC 51/85 C/2º E 3º L 8911/94     
003186FALTA RECADASTRAMENTO - ART.183, DEC.2251/97      
003187SUSPENSAO TEMPORARIA ADMINISTRATIVA               
002243SUSPENSAO TEMPORARIA ADMINISTRATIVA               
007134SUSPENSAO TEMPORARIA ADMINISTRATIVA               
003188DECISAO JUDICIAL                                  
018001CF 40 III A                                       
018002CF 40 III A L1711 184 I                           
018003CF 40 III A L1711 184 II                          
018004CF 40 III A L8112 250                             
018005CF 40 III A L8112 192 I                           
018006CF 40 III A L8112 192 II                          
018007CF 40 III A L1711 180                             
018008CF 40 III A L8112 193                             
018009CF 40 III A L8911 2º 3º                           
018010CF 40 III A L6732 2º                              
018011CF 40 III C                                       
018012L8112 190 - CF 40 III C                           
018013CF 40 III C L1711 180                             
018014L8112 190 - CF 40 III C L1711 180                 
018015CF 40 III C L8112 193                             
018016L8112 190 - CF 40 III C L8112 193                 
018017CF 40 III C L8911 2º 3º                           
018018L8112 190 - CF 40 III C L8911 2º 3º               
018019CF 40 III C L6732 2º                              
018020L8112 190 - CF 40 III C L6732 2º                  
018021CF 40 III D                                       
018022L8112 190 - CF 40 III D                           
018023CF 40 III D L1711 180                             
018024L8112 190 - CF 40 III D L1711 180                 
018025CF 40 III D L8112 193                             
018026L8112 190 - CF 40 III D L8112 193                 
018027CF 40 III D L8911 2º 3º                           
018028L8112 190 - CF 40 III D L8911 2º 3º               
018029CF 40 III D L6732 2º                              
018030L8112 190 - CF 40 III D L6732 2º                  
018031CF 40 III B                                       
018032CF 40 III B L1711 184 I                           
018033CF 40 III B L1711 184 II                          
018034CF 40 III B L8112 250                             
018035CF 40 III B L8112 192 I                           
018036CF 40 III B L8112 192 II                          
018037CF 40 III B L1711 180                             
018038CF 40 III B L8112 193                             
018039CF 40 III B L8911 2º 3º                           
018040CF 40 III B L6732 2º                              
018041CF 40 I INT                                       
018042CF 40 I INT L1711 180                             
018043CF 40 I INT L8112 193                             
018044CF 40 I INT L6732 2º                              
018045CF 40 I INT L8911 2º 3º                           
018046CF 40 I INT L1711 184 I                           
018047CF 40 I INT L1711 184 II                          
018048CF 40 I INT L8112 250                             
018049CF 40 I INT L8112 192 I                           
018050CF 40 I INT L8112 192 II                          
018051CF 40 I PROP                                      
018052L8112 190 - CF 40 I PROP                          
018053CF 40 I PROP L1711 180                            
018054L8112 190 - CF 40 I PROP L1711 180                
018055CF 40 I PROP L8112 193                            
018056L8112 190 - CF 40 I PROP L8112 193                
018057CF 40 I PROP L8911 2º 3º                          
018058L8112 190 - CF 40 I PROP L8911 2º 3º              
018059CF 40 I PROP L6732 2º                             
018060L8112 190 - CF 40 I PROP L6732 2º                 
018061CF 40 I PROP L1711 184 I                          
018062CF 40 I PROP L1711 184 II                         
018063CF 40 I PROP L8112 250                            
018064CF 40 I PROP L8112 192 I                          
018065CF 40 I PROP L8112 192 II                         
018066CF 40 II L1711 184 I                              
018067CF 40 II L1711 184 II                             
018068CF 40 II L8112 192 I                              
018069CF 40 II L8112 192 II                             
018070CF 40 II L8112 250                                
018071CF 40 II                                          
018072L8112 190 - CF 40 II                              
018073CF 40 II L1711 180                                
018074L8112 190 - CF 40 II L1711 180                    
018075CF 40 II L8112 193                                
018076L8112 190 - CF 40 II L8112 193                    
018077CF 40 II L8911 2º 3º                              
018078L8112 190 - CF 40 II L8911 2º 3º                  
018079CF 40 II L6732 2º                                 
018080L8112 190 - CF 40 II L6732 2º                     
118081VOL PROV INT MAGISTERIO - C/VANT ART 62-A E 192-I 
118082VOL PROV INT MAGISTERIO - C/VANT ART 62-A E 192-II
118083VOL PROV INT MAGISTERIO - C/VANT ART 62-A E 250   
118084VOL PROV INT MAGISTERIO - C/VANT ART 2º E 3º L8911
118085VOL PROV INT MAGISTERIO - C/VANT ART 184-I        
118086VOL PROV INT MAGISTERIO - C/VANT ART 184-II       
118087VOL PROV INT MAGISTERIO - C/VANT ART 180-I        
118088VOL PROV INT MAGISTERIO - C/VANT ART 180-II       
118089VOL PROV INT MAGISTERIO - C/VANT ART 2º L 6732/79 
118090ART 3º EC 20 C/C ART40 III A CF/88 PROV INT       
118091ART3º EC20 C/C ART40 IIIA CF88 C/ART 250 L8112 INT
118092ART3º EC20 C/C ART40 IIIA CF88 C/ART192I L8112 INT
118093ART3º EC20 C/C ART40IIIA CF88 C/ART192II L8112 INT
118094ART3º EC20 C/C ART40IIIA CF88 C/ART2º,3º L8911 INT
118095ART3º EC20 C/C ART40 IIIA CF88 C/ART 193 L8112 INT
118096ART 3º EC 20 C/C ART 40 III B CF/88 MAGISTERIO    
118097ART 3º EC20 C/C ART40III B CF88 C/ART250 L8112 MAG
118098ART 3ºEC20 C/C ART40IIIB CF88 C/ART192-I L8112 MAG
118099ART 3ºEC20 C/C ART40IIIB CF88 C/ART192II L8112 MAG
118100ART 3ºEC20 C/C ART 40 IIIB CF88 C/ART193 L8112 MAG
118101ART 3ºEC20 C/C ART40IIIB CF88 C/ART2º,3º L8911 MAG
118102ART 3º EC20 C/C ART40 III C CF/88 PROV PROP       
118103ART 3ºEC20 C/C ART40 III C CF88 C/ART190 L8112 MAG
118104ART3ºEC20 C/C ART40 III C CF88 C/ART193 L8112 PROP
003189MISSAO/ESTUDO NO EXTERIOR ART.102 VII             
118105ART3ºEC20 C/C ART40IIIC CF88 C/ART193,190 8112PROP
118106ART3ºEC20 C/C ART 40IIIC CF88 C/ART2º,3ºL8911 PROP
118107ART3ºEC20 C/C ART40IIIC CF88 C/ART2º,3º E 190 PROP
118108ART 3º EC20 C/C ART 40 III D CF/88 PROP P/IDADE   
118109ART3ºEC20 C/C ART40 IIID CF88 C/VANT ART 190 L8112
118110ART3º EC20 C/C ART40 IIID CF88 C/VANT ART193 L8112
118111ART3ºEC20 C/C ART40 IIID CF88 C/ART193 E 190 L8112
118112ART3ºEC20 C/C ART40IIID CF88 C/VANT ART2º,3º L8112
118113ART3ºEC20 C/C ART40IIID CF88 C/ART2º,3ºL8911 E 190
118114VOLUNTARIA PROV INTEGRAIS - EC 20/98 C/192 I      
118115VOLUNTARIA PROV INTEGRAIS - EC 20/98 C/192 II     
118116VOLUNTARIA PROV INTEGRAIS - EC 20/98 C/193        
118117VOL PROV INTEGRAIS - EC 20/98 C/250               
118118VOL PROV INTEGRAIS - EC 20/98 C/62-A E 192 I      
118119VOL PROV INTEGRAIS - EC 20/98 C/62-A E 192 II     
118120VOL PROV INTEGRAIS - EC 20/98 C/62-A E 250        
118121VOL INTEGRAIS - EC 20/98 C/2º E 3º L 8911/94      
118122VOL PROV INTEGRAIS - EC 20/98 C/184 I             
118123VOL PROV INTEGRAIS - EC 20/98 C/184 II            
118124VOL POR IDADE PROV PROP - EC 20/98                
118125VOL POR IDADE PROV PROP - EC 20/98 C/62-A         
118126VOL POR IDADE PROV PROP - EC 20/98 C/193          
118127VOL IDADE PROP - EC 20/98 C/2º E 3º L 8911/94     
118128INVALIDEZ COM PROVENTOS INTEGRAIS - EC 20/98      
118129INVALIDEZ PROVENTOS INTEGRAIS - EC 20/98 C/62-A   
118130INVALIDEZ PROVENTOS INTEGRAIS - EC 20/98 C/192 I  
118131INVALIDEZ PROVENTOS INTEGRAIS - EC 20/98 C/192 II 
118132INVALIDEZ PROVENTOS INTEGRAIS - EC 20/98 C/193    
118133INVALIDEZ PROVENTOS INTEGRAIS - EC 20/98 C/250    
118134INVALIDEZ PROV INTEGRAIS - EC 20/98 C/62-A E 192 I
118135INVALIDEZ PROV INTEGRAIS -EC 20/98 C/62-A E 192 II
118136INVALIDEZ PROV INTEGRAIS - EC 20/98 C/62-A E 250  
118137INV PROV INTEGRAIS - EC 20/98 C/2º E 3º L 8911/94 
118138INVALIDEZ PROVIMENTOS INTEGRAIS - EC 20/98 C/184 I
118139INVALIDEZ PROVENTOS INTEGRAIS - EC 20/98 C/184 II 
118140INVALIDEZ PROVENTOS PROPORCIONAIS - EC 20/98      
118141INVALIDEZ PROV PROPORCIONAIS - EC 20/98 C/62-A    
118142INVALIDEZ PROV PROPORCIONAIS - EC 20/98 C/192 I   
118143INVALIDEZ PROV PROPORCIONAIS - EC 20/98 C/192 II  
118144INVALIDEZ PROV PROPORCIONAIS - EC 20/98 C/193     
118145INVALIDEZ PROV PROPORCIONAIS - EC 20/98 C/250     
118146INV PROV PROPORCIONAIS - EC 20/98 C/62-A E 192 I  
118147INV PROV PROPORCIONAIS - EC 20/98 C/62-A E 192 II 
118148INVALIDEZ PROV PROPORCIONAIS-EC 20/98 C/62-A E 250
118149INV PROV PROPORCIONAIS-EC 20/98 C/2º E 3º L8911/94
118150INVALIDEZ PROV PROPORCIONAIS - EC 20/98 C/184 I   
118151INVALIDEZ PROV PROPORCIONAIS - EC 20/98 C/184 II  
118152COMPULSORIA PROVENTOS INTEGRAIS - EC 20/98        
118153COMPULSORIA PROV INTEGRAIS - EC 20/98 C/62-A      
118154COMPULSORIA PROV INTEGRAIS - EC 20/98 C/192 I     
118155COMPULSORIA PROV INTEGRAIS - EC 20/98 C/192 II    
118156COMPULSORIA PROV INTEGRAIS - EC 20/98 C/193       
118157COMPULSORIA PROV INTEGRAIS - EC 20/98 C/250       
118158COMP PROV INTEGRAIS - EC 20/98 C/62-A C/192 I     
118159COMP PROV INTEGRAIS - EC 20/98 C/62-A E 192 II    
118160COMP PROV INTEGRAIS - EC 20/98 C/62-A E 250       
118161COMP INTEGRAL - EC 20/98 C/2º E 3º L 8911/94      
118162COMPULSORIA PROV INTEGRAIS - EC 20/98 C/184 I     
118163COMPULSORIA PROV INTEGRAIS - EC 20/98 C/184 II    
118164COMPULSORIA PROVENTOS PROPORCIONAIS - EC 20/98    
118165COMPULSORIA PROV PROPORCIONAIS - EC 20/98 C/62-A  
118166COMPULSORIA PROV PROPORCIONAIS  EC 20/98 C/193    
118167COMP PROV PROP - EC 20/98 C/2º E 3º L 8911/94     
118168VOLUNTARIA PROV INT MAGISTERIO - EC 20/98         
118169VOLUNTARIA PROV INT MAGISTERIO - EC 20/98 C/62-A  
118170VOLUNTARIA PROV INT MAGISTERIO - EC 20/98 C/192 I 
118171VOLUNTARIA PROV INT MAGISTERIO - EC 20/98 C/192 II
118172VOLUNTARIA PROV INT MAGISTERIO - EC 20/98 C/193   
118173VOL PROV INT MAGISTERIO - EC 20/98 C/250          
118174VOL PROV INT MAGISTERIO - EC 20/98 C/62-A E 192 I 
118175VOL PROV INT MAGISTERIO - EC 20/98 C/62-A E 192 II
118176VOL PROV INT MAGISTERIO - EC 20/98 C/62-A E 250   
118177VOL PROV INT MAGISTERIO-EC20/98 C/2º E 3º L8911/94
118178VOL PROV INT MAGISTERIO - EC 20/98 C/184 I        
118179VOL PROV INT MAGISTERIO - EC 20/98 C/184 II       
118180VOLUNTARIA ART 40 CF/88 RED EC 41/2003            
118181VOLUNTARIA IDADE ART 40 CF/88 RED EC 41/2003      
118182INVALIDEZ INTEGRAL ART 40 CF/88 RED EC 41/2003    
118183INVALIDEZ INTEGRAL ART 40 CF/88 RED EC41/03 C/62-A
118184INVALIDEZ INTEGRAL ART40 CF/88 RED EC41/03 C/192 I
118185INVALIDEZ INTEGRAL ART40 CF/88 RED EC41/03 C/192II
118186INVALIDEZ INTEGRAL ART40 CF/88 C/RED EC41/03 C/193
118187INV INT ART40 CF/88 RED EC41/03 C/250             
118188INV INT ART 40 CF/88 RED EC 41/03 C/62-A E 192 I  
118189INV INT ART40 CF/88 RED EC 41/03 C/62-A E 192 II  
118190INV INT ART 40 CF/88 RED EC 41/03 C/62-A E 250    
118191INV INT ART40 CF/88 RED EC41/03 C/2º E 3º L8911/94
118192INVALIDEZ INTEGRAL ART40 CF/88 RED EC 41/03 C/184I
118193INVALIDEZ INTEGRAL ART40 CF/88 RED EC41/03 C/184II
118194INVALIDEZ ART 40 CF/88 RED EC 41/2003             
118195INVALIDEZ PROP ART 40 CF/88 RED EC 41/2003        
118196INVALIDEZ PROP ART 40 CF/88 RED EC 41/03 C/62-A   
118197INVALIDEZ PROP ART 40 CF/88 RED EC 41/03 C/192 I  
118198INVALIDEZ PROP ART 40 CF/88 RED EC 41/03 C/192 II 
118199INVALIDEZ PROP ART 40 CF/88 RED EC 41/03 C/193    
118200INVALIDEZ PROP ART 40 CF/88 RED EC 41/03 C/250    
118201INV PROP ART40 CF/88 RED EC41/03 C/62-A E 192 I   
118202INV PROP ART40 CF/88 RED EC 41/03 C/62-A E 192 II 
118203INV PROP ART 40 CF/88 RED EC 41/03 C/62-A E 250   
118204INV PROP ART40 CF/88 RED EC41/03 C/2º E 3º 8911/94
118205INVALIDEZ PROP ART 40 CF/88 RED EC 41/03 C/184 I  
118206INVALIDEZ PROP ART 40 CF/88 RED EC 41/03 C/184 II 
118207INVALIDEZ PROP ART 40 CF/88 RED EC 41/2003        
118208COMPULSORIA PROP ART 40 CF/88 RED EC 41/03        
118209COMPULSORIA PROP ART 40 CF/88 RED EC 41/03 C/62-A 
118210COMPULSORIA PROP ART 40 CF/88 RED EC 41/03 C/192 I
118211COMPULSORIA PROP ART40 CF/88 RED EC 41/03 C/192 II
118212COMPULSORIA PROP ART 40 CF/88 RED EC 41/03 C/193  
118213COMPULSORIA PROP ART 40 CF/88 RED EC 41/03 C/250  
118214COMP PROP ART40 CF/88 RED EC 41/03 C/62-A E 192 I 
118215COMP PROP ART40 CF/88 RED EC 41/03 C/62-A E 192 II
118216COMP PROP ART40 CF/88 RED EC41/03 C/62-A_E 250    
118217COMP PROP ART40 CF/88 RED EC41/03 C/2º 3º L8911/94
118218COMP PROP ART 40 CF/88 RED EC 41/03 C/184 I       
118219COMP PROP ART 40 CF/88 RED EC 41/03 C/184 II      
118220COMPULSORIA PROP ART 40 CF/88 RED EC 41/03        
118221VOLUNTARIA MAGISTERIO ART 40 CF/88 RED EC 41/2003 
117029COMPULSORIA INTEGRAL ART.1 INC.II LC 51/85 C/184 I
117030COMPULSORIA INTEGRAL ART.1 INC.11 LC51/85 C/184 II
117031COMPULSORIA INTEGRAL ART.1 INC.II LC 51/85 C/180 I
117032COMPULSORIA INTEGRAL ART.1INC.II LC 51/85 C/180 II
117033COMP.INT.ART.1 INC.II LC 51/85 C/2º L.8732/79     
019001CF67 101 I 102 I B                                
019002CF67 101 I 102 I B L1711 184 I                    
019003CF 67 101 I 102 I B L1711 184 II                  
019004CF67 101 I 102 I B L1711 180                      
019005CF67 101 I 102 I B L6732 2º                       
019006CF67 101 I 102 II                                 
019007L8112 190 CF67 101 I 102 II                       
019008CF67 101 I 102 I A L1711 184 I                    
019009CF67 101 I 102 I A L1711 184 II                   
019010CF67 101 I 102 I A L1711 180                      
019011CF67 101 I 102 I A L6732 2º                       
019012CF67 101 II 102 I A                               
019013CF67 101 II 102 I A L1711 184 I                   
019014CF67 101 II 102 I A L1711 184 II                  
019015CF67 101 II 102 I A L1711 180                     
019016CF67 101 II 102 I A L6732 2º                      
019017CF67 101 II 102 II                                
019018L8112 190 CF67 101 II 102 II                      
019019CF67 101 III 102 I A                              
019020CF67 101 III 102 I A L1711 184 I                  
019021CF67 101 III 102 I A L1711 184 II                 
019022CF67 101 III 102 I A L1711 180                    
019023CF67 101 III 102 I A L6732 2º                     
019024CF67 101 III 165 XX  MAGISTERIO                   
019025CF67 101 III 165 XX L1711 184 I   MAGISTERIO      
019026CF67 101 III 165 XX L1711 184 II  MAGISTERIO      
019027CF67 101 III 165 XX L1711 180  MAGISTERIO         
019028CF67 101 III 165 XX L6732 2º  MAGISTERIO          
019029CF67 178 C EX-COMBATENTE                          
019030CF67 178 C L1711 184 I EX-COMBATENTE              
019031CF67 178 C L1711 184 II EX-COMBATENTE             
019032CF67 178 C L1711 180 EX-COMBATENTE                
020001EC20 3º CF 40 III A                               
020002EC20 3º CF 40 III A L8112 250                     
020003EC20 3º CF 40 III A L8112 192 I                   
020004EC20 3º CF 40 III A L8112 192 II                  
020005EC20 3º CF 40 III A L8112 193                     
020006EC20 3º CF 40 III A L8911 2º 3º                   
020007EC20 3º CF 40 III B                               
020008EC20 3º CF 40 III B L8112 250                     
020009EC20 3º CF 40 III B L8112 192 I                   
020010EC20 3º CF 40 III B L8112 192 II                  
020011EC20 3º CF 40 III B L8112 193                     
020012EC20 3º CF 40 III B L8911 2º 3º                   
020013EC20 3º CF 40 III C                               
020014L8112 190 - EC20 3º CF 40 III C                   
020015EC20 3º CF 40 III C L8112 193                     
020016L8112 190 - EC20 3º CF 40 IIIC L8112 193          
020017EC20 3º CF 40 III C L8911 2º 3º                   
020018L8112 190 - EC20 3º CF 40 III C L8911             
020019EC20 3º CF 40 III D                               
020020L8112 190 - EC20 3º CF 40 III D                   
020021EC20 3º CF 40 III D L8112 193                     
020022L8112 190 - EC20 3º CF 40 IIID L8112 193          
020023EC20 3º CF 40 III D L8911 2º 3º                   
020024L8112 190 - EC20 3º CF 40 III D L8911             
020025EC20 40 III A                                     
020026EC20 40 III A L8112 193                           
020027EC20 40 III A L8911 2º 3º                         
020028EC20 40 III A ÷5º                                 
020029EC20 40 III A ÷5º L8112 193                       
020030EC20 40 III A ÷5º L8911 2º 3º                     
020031EC20 40 III B                                     
020032L8112 190 - EC20 40 III B                         
020033EC20 40 III B L8112 193                           
020034L8112 190 - EC20 40 III B L8112 193               
020035EC20 40 III B L8911 2º 3º                         
020036L8112 190 - EC20 40 III B L8911 2º 3º             
003190(LEI ELEITORAL) ART.7, INC.II, LEI 4737/65        
002244ART. 7º, INCISO II, LEI 4.737/65 - (LEI ELEITORAL)
011009APOSENTADORIA COMPUL PROVENT INTEGRAIS EC/20-98   
005111APOSENTADORIA COMPULSORIA C/ ART 184-II C/C 250   
005261APOS VOL PROV INT MAGIST EC 41/03 ART 40 ÷5º      
105112COMPULSORIA ART 186 II C/VANT ART 190 L 8112/90   
105113VOLUNT ART 186 III "C" C/VANT ART 190 L 8112/90   
105114VOLUNT ART 186 III "D" C/VANT ART 190 L 8112/90   
105115INV PROV PROV ART 186-I C/VANT ART 190 L 8112/90  
005262VOL PROV PROP ART.8 ÷1º I,II EC 20 C/C ART.3 EC 41
014006REFORMA REMUNERADA - LEI 5694/60 - 10%            
014007REFORMA REMUNERADA - LEI 5694/60(10%) ISENCAO IR  
003191TEMPO INSALUBRE                                   
003192LICENCA ATIVIDADE EMPRESARIAL                     
003193AFAST P/ PRESTAR COLABORACAO A OUTRA ICT-LEI 10973
001181COLABORACAO A ICT                                 
118222VOL PROV PROP CF/88 C/VANT ART 190 L 8112         
118223VOL PROV PROP CF88 C/VANT ART180 L1711 E 190 L8112
118224VOL PROV PROP CF88 C/VANT ART 193 E 190 L 8112    
118225VOL PROV PROP CF88 C/ART 2º,3ºL8911 E ART190 L8112
118226VOL PROV PROP CF88 C/VANT ART2º L6732 ART190 L8112
118227VOL P/IDADE CF/88 C/VANT ART 190 L 8112/90        
118228VOL P/IDADE CF88 C/ART 180 L 1711 E ART 190 L 8112
118229VOL P/IDADE CF/88 C/VANT ART 193 E 190 L 8112/90  
118230VOL P/IDADE CF/88 C/ART 2º E 3º L8911 E 190 L 8112
118231VOL P/IDADE CF88 C/VANT ART2º L6732 E ART190 L8112
118232INV PROP CF/88 C/VANT ART 190 L 8112/90           
118233INV PROP CF/88 C/VANT ART 180 L1711 E ART190 L8112
118234INV PROP CF/88 C/VANT ART 193 E 190 L 8112/90     
118235INV PROP CF/88 C/ART 2º E 3º L8911 E ART 190 L8112
118236INV PROP CF/88 C/VANT ART 2º L6732 E ART 190 L8112
118237COMP PROV PROP CF/88 C/VANT ART 190 L 8112/90     
118238COMP PROP CF88 C/VANT ART 180 L1711 E 190 L8112   
118239COMP PROP CF/88 C/VANT ART 193 E 190 L 8112/90    
118240COMP PROP CF/88 C/ART 2º E 3º L8911 E ART190 L8112
118241COMP PROP CF/88 C/VANT ART 2º L6732 E ART190 L8112
002245DESTITUICAO CARGO COMISSAO-ART.137 LEI 8112/90    
020037EC20 40 I PROP                                    
020038L8112 190 - EC20 40 I PROP                        
020039EC20 40 I PROP L8112 193                          
020040L8112 190 - EC20 40 I PROP L8112 193              
020041EC20 40 I PROP L8911 2º 3º                        
020042L8112 190 - EC20 40 I PROP L8911 2º 3º            
020043EC20 40 I PROP L8112 192 I                        
020044EC20 40 I PROP L8112 192 II                       
020045EC20 40 I INT                                     
020046EC20 40 I INT L8112 193                           
020047EC20 40 I INT L8911 2º 3º                         
020048EC20 40 I INT L8112 192 I                         
020049EC20 40 I INT L8112 192 II                        
020050EC20 40 II L8112 192 I                            
020051EC20 40 II L8112 192 II                           
020052EC20 40 II L8112 250                              
020053EC20 40 II                                        
020054L8112 190 - EC20 40 II                            
020055EC20 40 II L8112 193                              
020056L8112 190 - EC20 40 II L8112 193                  
020057EC20 40 II L8911 2º 3º                            
020058L8112 190 - EC20 40 II L8911 2º 3º                
020059EC20 8º ÷4º                                       
020060EC20 8º ÷4º L8112 193                             
020061EC20 8º ÷4º L8911 2º 3º                           
020062EC20 8º I, II, III                                
020063EC20 8º I, II, III L8112 193                      
020064EC20 8º I, II, III L8911 2º 3º                    
020065EC20 8º I, II ÷1º                                 
020066L8112 190 - EC20 8º I, II ÷1º                     
020067EC20 8º I, II ÷1º L8112 193                       
020068L8112 190 - EC20 8º I, II ÷1º L8112 193           
020069EC20 8º I, II ÷1º L8911 2º 3º                     
020070L8112 190 - EC20 8º I,II ÷1º L8911 2º 3º          
001666ESTAGIO/CONVENIO/CONTRATO                         
002666DESLIGAMENTO ESTAGIARIO                           
041001EC41 40 II ATE 19/02/04                           
041002L8112 190 - EC41 40 II ATE 19/02/04               
041003EC41 40 II L8112 193 ATE 19/02/04                 
041004L8112 190 - EC41 40 II 193 ATE 19/02/04           
041005EC41 40 II L8911 ATE 19/02/04                     
041006L8112 190 - EC41 40 II L8911 ATE19/02/04          
041007EC41 40 II L8112 192 I ATE 19/02/04               
041008EC41 40 II L8112 192 I ATE 19/02/04               
041009EC41 40 II L8112 250 ATE 19/02/04                 
041010EC41 40 I ATE 19/02/04 INT                        
041011EC41 40 I L8112 193 ATE 19/02/04 INT              
041012EC41 40 I L8911 2º E 3º ATE 19/02/04 - INT        
041013EC41 40 I L8112 192 I ATE 19/02/04 INT            
041014EC41 40 I L8112 192 II ATE 19/02/04 INT           
041015EC41 40 I L8112 250 ATE 19/02/04 INT              
041016EC41 40 I ATE 19/02/04 PROP                       
041017L8112 190 - EC41 40 I ATE 19/02/04 PROP           
041018EC41 40 I L8112 193 ATE 19/02/04 PROP             
041019L8112 190 - EC41 40 I 193 ATE 19/02/04            
041020EC41 40 I L8911 2º 3º ATE 19/02/04 PROP           
041021L8112 190 - EC41 40 I L8911 ATE 19/02/04          
041022EC41 40 I L8112 192 I ATE 19/02/04 PROP           
041023EC41 40 I L8112 192 II ATE 19/02/04 PROP          
041024EC41 40 I L8112 250 ATE 19/02/04 PROP             
041025EC41 2º REDUTOR 3,5% ATE 19/02/04                 
041026EC41 2º ÷ 4º REDUTOR 3,5% ATE 19/02/04            
041027EC41 2º REDUTOR 5%                                
041028EC41 2º ÷ 4º REDUTOR 5%                           
041029EC41 40 III A ÷ 5º ATE 19/02/04                   
041030EC41 40 III A ÷5º L8112 193 ATE 19/02/04          
041031EC41 40 III A ÷ 5º L8911 ATE 19/02/04             
041032EC41 40 III A ATE 19/02/04                        
041033EC41 40 III A L8112 193 ATE 19/02/04              
041034EC41 40 III A L8911 2º 3º ATE 19/02/04            
041035EC41 40 III B ATE 19/02/04                        
041036L8112 190 - EC41 40 III B ATE 19/02/04            
041037EC41 40 III B L8112 193 ATE 19/02/04              
041038L8112 190 - EC41 40 III B L8112 193               
041039EC41 40 III B L8911 2º 3º ATE 19/02/04            
041040L8112 190 - EC41 40 III B L8911 2º 3º             
041041EC41 40 II                                        
041042EC41 40 I INT                                     
041043EC41 40 I PROP                                    
041044EC41 2º REDUTOR 3,5%                              
041045EC41 2º ÷ 4º REDUTOR 3,5%                         
041046EC41 2º REDUTOR 5%                                
141047EC41 2º ÷ 4º REDUTOR 5% APOS 19/02/04             
041048EC41 40 III A                                     
041049EC41 40 III A ÷ 5º                                
041050EC41 40 III B                                     
041051EC41 6º ÷ 5º                                      
041052EC41 6º ÷ 5º L8112 193                            
041053EC41 6º ÷ 5º L8911 2º 3º                          
041054EC41 6º                                           
041055EC41 6º L8112 193                                 
041056EC41 6º L8911 2º 3º                               
047001EC47 3º                                           
047002EC47 3º L8112 193                                 
047003EC47 3º L8911 2º 3º                               
041057EC 41 3º CF 40 III A                              
041058EC 41 3º CF 40 III A L8112 250                    
041059EC 41 3º CF 40 III A L8112 192 I                  
041060EC 41 3º CF 40 III A L8112 192 II                 
041061EC 41 3º CF 40 III A L8112 193                    
041062EC 41 3º CF 40 III A L8911 2º E 3º                
041063EC 41 3º CF 40 III B                              
041064EC 41 3º CF 40 III B L8112 250                    
041065EC 41 3º CF 40 III B L8112 192 I                  
041066EC 41 3º CF 40 III B L8112 192 II                 
041067EC 41 3º CF 40 III B L8112 193                    
041068EC 41 3º CF 40 III B L8911 2º E 3º                
041069EC41 3º CF 40 III C                               
041070L8112 190 - EC41 3º CF 40 III C                   
041071EC41 3º CF 40 III C L8112 193                     
041072L8812 190 - EC41 3º CF 40 III C 193               
041073EC41 3º CF 40 III C L8911 2º 3º                   
041074L8112 190 - EC41 3º CF 40 III C L8911             
041075EC41 3º CF 40 III D                               
041076L8112 190 - EC41 3º CF 40 III D                   
041077EC41 3º CF 40 III D L8112 193                     
041078L8112 190 - EC41 3º CF 40 III D 193               
041079EC41 3º CF 40 III D L8911 2º 3º                   
041080L8112 190 - EC41 3º CF 40 III D L8911             
041081EC41 3º EC20 40 III A                             
041082EC41 3º EC20 40 III A L8112 193                   
041083EC41 3º EC20 40 III A L8911 2º 3º                 
041084EC41 3º EC20 40 III A ÷ 5º                        
041085EC41 3º EC20 40 III A ÷ 5º L8112 193              
041086EC41 3º EC20 40 III A ÷ 5º L8911 2º 3º            
041087EC41 3º EC20 40 III B                             
041088L8112 190 - EC41 3º EC20 40 III B                 
041089EC41 3º EC20 40 III B L8112 193                   
041090L8112 190 - EC41 3º EC20 40 III B 193             
041091EC41 3º EC20 40 III B L8911 2º 3º                 
041092L8112 190 - EC41 3º EC20 40 III B L8911           
041093EC41 3º EC20 8º                                   
041094EC41 3º EC20 8º L8112 193                         
041095EC41 3º EC20 8º L8911 2º 3º                       
041096EC41 3º EC20 8º ÷ 4º                              
041097EC41 3º EC20 8º ÷ 4º L8112 193                    
041098EC41 3º EC20 8º ÷ 4º L8911 2º 3º                  
041099EC41 3º EC20 8º ÷ 1º                              
041100L8112 190 - EC41 3º EC20 8º ÷ 1º                  
041101EC41 3º EC20 8º ÷ 1º L8112 193                    
041102L8112 190 - EC41 3º EC20 8º ÷ 1º 193              
041103EC41 3º EC20 8º ÷ 1º L8911 2º 3º                  
041104L8112 190 - EC41 3º EC20 8º ÷ 1º L8911            
002246DESTIT CARGO COMISSAO ÷ UNICO ART. 137 LEI 8112/90
041105EC41 3º EC20 40 III B - ABONO DE PERMANENCIA      
007135FALTA DE RECADASTRAMENTO                          
116005ABONO DE PERMANENCIA                              
014008REFORMA REMUN-LEI 5694/50(20%)ISENCAO IR-AUX.INVAL
014009REFORMA REMUNERADA - LEI 5694/60 -(20%)           
014010REFORMA REMUNERADA-LEI 5694/60(40%)-ISENCAO IR    
014011REFORMA REMUN-LEI 5694/60(20%)ISENCAO IR-AUX.INVAL
047004EC47 3º L8112 192 I                               
047005EC47 3º L8112 192 II                              
015003RESERVA REMUNERADA-LEI 1.156/50 - 10%             
015004RESERVA REMUNERADA INTEGRAL ART 20 ÷3 LEI 10486/02
003194AFAST DE MIN DE ESTADO DO PAIS S/ONUS             
016006ABONO DE PERMANENCIA EC 41/03 ART 40 ÷ 19         
016007ABONO DE PERMANENCIA EC 41/03 ART 2º ÷ 5          
016008ABONO DE PERMANENCIA EC 41/03 ART 3º ÷ 1º         
001182SUCESSAO TRABALHISTA                              
002034SUCESSAO TRABALHISTA                              
014013REFORMA REMUNERADA-LEI 5694/60(40%)-ISENCAO IR    
014012REFORMA REMUNERADA - LEI 5694/60 (40%)            
014014REFORMA REMUN-LEI 5694/60(40%)ISENCAO IR-AUX.INVAL
015005RESERVA REMUNERADA-LEI 5.694/60 - 10%             
015006RESERVA REMUNERADA-LEI 1.156/50 - 20%             
015007RESERVA REMUNERADA-LEI 1.156/50 - 40%             
041106L8112 190 - EC41 40 I                             
041107L8112 190 - EC41 40 II                            
041108L8112 190 - EC41 40 III_B                         
041109L8112 190 - EC41 2º ÷ 4º REDUTOR 3,5%             
041110L8112 190 - EC41 2º REDUTOR 3,5%                  
041111L8112 190 - EC41 2º ÷ 4º REDUTOR 5%               
041112L8112 190 - EC41 2º REDUTOR 5%                    
003195LICENçA GESTANTE JUDICIAL (MAIS 60 DIAS)          
003246AFAST PROVIS JUDIC OU ADMINIST ART 20 LEI 8429/92 
003196POSTOS DE ATRACAO E PACIFICACAO INDIOS            
003197LICENCA GESTANTE / MATERNIDADE - PRORROGACAO      
003198ADOCAO OU GUARDA JUDICIAL - PRORROGACAO           
001183RETORNO - EMPREGADO ANS - DEC 6657/08             
003200EXERCICIO - PARAGRAFO 7º ART. 93 LEI 8112/90      
003199PRISAO PROVISORIA - ITEM III DEC 23.390/02        
001184EXERC EXT PARAG 7 ART 93 -LEI 8112/90             
003201AFAST TEMP ART 6º LEI NR. 10486/2002              
047006EC47 3º L8112 250                                 
001185CONTRATADO TEMPORARIO - LEI 8745/93-DEC JUDICIAL  
001186RESIDENCIA MULTIPROFISSIONAL                      
003205RECESSO ESTAGIARIO                                
005117DECISAO TCU 733 CARGO COMISSAO                    
019033CF67 178 C L6732 2º EX-COMBATENTE                 
019034LC 29                                             
019035L8112 190 LC 29                                   
019036LC 36                                             
019037L8112 190 LC 36                                   
003206TEMPO AVERBAÇÃO INSS                              
002400RESC.COM JUSTA CAUSA POR INICIATIVA DO EMPREGADOR 
002401RESC.SEM JUSTA CAUSA POR INICIATIVA DO EMPREGADOR 
002403RESCISAO POR TERMINO DE CONTRATO A TERMO          
002402RESCISAO POR CULPA RECIPROCA OU FORCA MAIOR       
002404RESC. DO CONT. DE TRAB.POR INICIATIVA DO EMPREGADO
002405RESC.A PED.EMP OU INI.EMP C/J/C P/EMP.NAO OPTANTE 
002406OUTROS MOTIVOS DE RESCISãO DO CONTRATO DE TRABALHO
002407MUDANÇA DE REGIME ESTATUTARIO                     
002408TRANSF.EMP.OUTRO ESTAB.DENTRO DA MESMA EMPRESA    
002409TRANSF.EMP.OUTRA EMP.QUE ASSUM.OS ENC.TRAB S/RESC.
001400EMP.PROV DE TRANSF.OUTRO ESTAB.MESMA EMP.S/RESC.  
002410FALECIMENTO                                       
002411FALECIMENTO MOTIVADO POR ACIDENTE DO TRABLAHO     
041113EC41 40 I PROP_- PROFESSOR                        
041114EC41 40 I PROP_- POLICIAL LC 51                   
041115EC41 40 I ATE 19/02/04  PROP_- PROFESSOR          
041116EC41 40 I ATE 19/02/04  PROP_- POLICIAL LC 51     
007050REFORMA ADMINISTRATIVA                            
007124TRANSFERENCIA INSTIT/BENEFICIARIO P/ OUTRO ORGAO  
003248LICENCA TRATAMENTO SAUDE INFERIOR 15 DIAS/204/8112
003249LICENCA PESSOA FAMILIA INFERIOR 15 DIAS/DEC7003/93
041117EC41 6º ÷ 5º L8112 192 I                          
041118EC41 6º ÷ 5º L8112 192 II                         
041119EC41 6º ÷ 5º L8112 250                            
041120EC41 6º L8112 192 I                               
041121EC41 6º L8112 192 II                              
041122EC41 6º L8112 250                                 
048001APOSENTADORIA ESPECIAL MANDADO DE INJUNCAO        
048002JUDICIAL PROVENTO INTEGRAL COM PARIDADE           
048003JUDICIAL PROVENTO PROPORCIONAL COM PARIDADE       
001502CONTR.PROF.SUBSTITUTO, LEI 8745/93, ART.2, INC.IV 
001503CONTR.PROF.VISITANTE, LEI 8745/93, ART. 2, INC. IV
001504CONTR.PROF. TEMPORARIO, LEI 8745/93, ART.2, INC. X
001505PRORROG.CONTR. ÷ UNICO, ART. 4, INCISO I L8745/93 
001474ASSIST CALAMIDADE PUBLICA LEI 8745/93-ART.2 INC.I 
001475ASSIST EMERGENC SAUDE PUB LEI 8745/93 ART2 INC II 
001476RECENSEAMENTOS LEI 8745/93 ART 2 INC III          
001477PESQUISA NATUREZA ESTAT IBGE L8745/93 ART2 INC III
001478ADM PROFESSOR VISTANTE ESTRANG L8745/93 ART2 INC V
001479ADM PESQUISADOR VISIT ESTRANG L8745/93 ART2 INC V 
001480ATIV ESP FORÇAS ARMADAS L 8745/93 ART 2 INC IV "A"
001481ATIV DEMARCAÇÃO TERRIT LEI 8745/93 ART2 INC VI "B"
001482ATIV FINAL HOSP F ARMADAS L8745/93 ART2 INC VI "D"
001483ATIV PESQ DESEN PRODUTOS L 8745/93 ART2 INC VI "E"
001484ATIV VIGILANCIA DEF AGROP L8745/93 ART2 INC VI "F"
001485ATIV PROJETOS SIVAM/SIPAM L8745/93 ART2 INC VI "G"
001486ATIV PROJETOS COOPERAÇÃO L 8745/93 ART2 INC VI "H"
001487ATIV TEC ESPECIALIZADAS L 8745/93 ART 2 INC VI "I"
001488ATIV TECNICAS TEC INFORM L 8745/93 ART2 INC VI "J"
001489ATIV DIDATICO-PEDAGICAS L 8745/93 ART 2 INC VI "L"
001490ASSIST SAUDE C INDIGENA L 8745/93 ART 2 INC VI "M"
001491SUBST PROF/PESQ/TECN LICENC. L8745/93 ART2 INC VII
001493COMBATE EMERGENC AMBIENTAIS L 8745/93 ART 2 INC IX
001506PRORROG CONT ART 4 ÷ ÚNICO INC II LEI 8745/93     
001507PRORROG CONT ART 4 ÷ ÚNICO INC III LEI 8745/93    
001508PRORROG CONT ART 4 ÷ ÚNICO INC IV LEI 8745/93     
001509PRORROG CONT ART 4 ÷ ÚNICO INC V LEI 8745/93      
001510PRORROG CONT ART 4 ÷ ÚNICO INC VI LEI 8745/93     
001492ADM PESQUISADOR NAC/ESTR L 8745/93 ART 2 INC VIII 
048004JUDICIAL INVALIDEZ PROVENTO INTEGRAL COM PARIDADE 
009029ENCERRAMENTO POR DUPLICIDADE DE REGISTRO          
019038JUDICIAL PROVENTOS INTEGRAIS                      
019039JUDICIAL PROVENTO PROPORCIONAL                    
022001RECADASTRAMENTO ANUAL CONCLUIDO - LEI 9.527/97    
022002SUSPENSAO BENEFICIO DE PENSAO - ON SEGEP NR 1/2013
022003SUSPENSAO PROVENTO/REPARACAO ECONOMICA ON 1/2013  
041123EC41 40 I 6-A EC70 INT                            
041124EC41 40 I 6-A EC70 PROP                           
041125L8112 190 - EC41 40 I 6-A EC70 PROP               
041126EC41 40 I 6-A EC70 L8112 193 INT                  
041127EC41 40 I 6-A EC70 L8911 2º 3º INT                
041128EC41 40 I 6-A EC70 L8112 192 I INT                
041129EC41 40 I 6-A EC70 L8112 192 II INT               
041130EC41 40 I 6-A EC70 L8112 193 PROP                 
041131L8112 190 - EC41 40 I 6-A EC70 L8112 193 PRO      
041132EC41 40 I 6-A EC70 L8911 2º 3º PROP               
041133L8112 190 - EC41 40 I 6-A EC70 L8911 2º 3º PROP   
041134EC41 40 I 6-A EC70 PROP L8112 192 I               
041135EC41 40 I 6-A EC70 PROP L8112 192 II              
019040CF67 101 III 102 I A L8112 192 II                 
003250ADOCAO OU GUARDA JUDICIAL - DECISAO JUDICIAL      
001049CONTRATO TEMPORARIO CLT - DEC.LEI NR 5.452/1943   
002049DESLIG. CONTRATO TEMPORARIO CLT-DEC.LEI 5452/1943 
022004RECADASTRAMENTO VIA TUTOR/CURADOR: PENDENTE VISITA
